; Function Attrs: mustprogress uwtable
define internal fastcc noundef i32 @_ZL13dumpTreeLevelv() unnamed_addr #3 personality ptr @__gxx_personality_v0 {
  %1 = alloca %"class.std::__cxx11::basic_string", align 8
  %2 = alloca %"class.std::allocator.13", align 1
  %3 = alloca %"class.std::__cxx11::basic_string", align 8
  %4 = alloca %"class.std::allocator.13", align 1
  %5 = load i32, ptr @_ZZL13dumpTreeLevelvE5level, align 4
  %6 = icmp slt i32 %5, 0
  br i1 %6, label %7, label %30

7:                                                ; preds = %0
  call void @_ZNSaIcEC1Ev(ptr noundef nonnull align 1 dereferenceable(1) %2) #20
  %8 = invoke noundef ptr @_ZNSt7__cxx1112basic_stringIcSt11char_traitsIcESaIcEE13_M_local_dataEv(ptr noundef nonnull align 8 dereferenceable(32) %1)
          to label %.noexc unwind label %21

.noexc:                                           ; preds = %7
  invoke void @_ZNSt7__cxx1112basic_stringIcSt11char_traitsIcESaIcEE12_Alloc_hiderC1EPcRKS3_(ptr noundef nonnull align 8 dereferenceable(8) %1, ptr noundef %8, ptr noundef nonnull align 1 dereferenceable(1) %2)
          to label %.noexc16 unwind label %21

.noexc16:                                         ; preds = %.noexc
  invoke void @_ZNSt7__cxx1112basic_stringIcSt11char_traitsIcESaIcEE12_M_constructIPKcEEvT_S8_St20forward_iterator_tag(ptr noundef nonnull align 8 dereferenceable(32) %1, ptr noundef nonnull @.str.510, ptr noundef nonnull getelementptr inbounds ([5 x i8], ptr @.str.510, i64 0, i64 4))
          to label %_ZNSt7__cxx1112basic_stringIcSt11char_traitsIcESaIcEEC2IS3_EEPKcRKS3_.exit unwind label %9

9:                                                ; preds = %.noexc16
  %10 = landingpad { ptr, i32 }
          cleanup
  call void @_ZNSaIcED2Ev(ptr noundef nonnull align 1 dereferenceable(1) %1) #20
  br label %.body

_ZNSt7__cxx1112basic_stringIcSt11char_traitsIcESaIcEEC2IS3_EEPKcRKS3_.exit: ; preds = %.noexc16
  %11 = invoke noundef i32 @_ZNK9V3Options9dumpLevelERKNSt7__cxx1112basic_stringIcSt11char_traitsIcESaIcEEE(ptr noundef nonnull align 8 dereferenceable(1560) getelementptr inbounds (%class.V3Global, ptr @v3Global, i64 0, i32 22), ptr noundef nonnull align 8 dereferenceable(32) %1)
          to label %12 unwind label %23

12:                                               ; preds = %_ZNSt7__cxx1112basic_stringIcSt11char_traitsIcESaIcEEC2IS3_EEPKcRKS3_.exit
  call void @_ZNSt7__cxx1112basic_stringIcSt11char_traitsIcESaIcEED1Ev(ptr noundef nonnull align 8 dereferenceable(32) %1) #20
  call void @_ZNSaIcED1Ev(ptr noundef nonnull align 1 dereferenceable(1) %2) #20
  call void @_ZNSaIcEC1Ev(ptr noundef nonnull align 1 dereferenceable(1) %4) #20
  %13 = invoke noundef ptr @_ZNSt7__cxx1112basic_stringIcSt11char_traitsIcESaIcEE13_M_local_dataEv(ptr noundef nonnull align 8 dereferenceable(32) %3)
          to label %.noexc17 unwind label %25

.noexc17:                                         ; preds = %12
  invoke void @_ZNSt7__cxx1112basic_stringIcSt11char_traitsIcESaIcEE12_Alloc_hiderC1EPcRKS3_(ptr noundef nonnull align 8 dereferenceable(8) %3, ptr noundef %13, ptr noundef nonnull align 1 dereferenceable(1) %4)
          to label %.noexc18 unwind label %25

.noexc18:                                         ; preds = %.noexc17
  invoke void @_ZNSt7__cxx1112basic_stringIcSt11char_traitsIcESaIcEE12_M_constructIPKcEEvT_S8_St20forward_iterator_tag(ptr noundef nonnull align 8 dereferenceable(32) %3, ptr noundef nonnull @.str.1, ptr noundef nonnull getelementptr inbounds ([113 x i8], ptr @.str.1, i64 0, i64 112))
          to label %_ZNSt7__cxx1112basic_stringIcSt11char_traitsIcESaIcEEC2IS3_EEPKcRKS3_.exit21 unwind label %14

14:                                               ; preds = %.noexc18
  %15 = landingpad { ptr, i32 }
          cleanup
  call void @_ZNSaIcED2Ev(ptr noundef nonnull align 1 dereferenceable(1) %3) #20
  br label %.body

_ZNSt7__cxx1112basic_stringIcSt11char_traitsIcESaIcEEC2IS3_EEPKcRKS3_.exit21: ; preds = %.noexc18
  %16 = invoke noundef i32 @_ZNK9V3Options12dumpSrcLevelERKNSt7__cxx1112basic_stringIcSt11char_traitsIcESaIcEEE(ptr noundef nonnull align 8 dereferenceable(1560) getelementptr inbounds (%class.V3Global, ptr @v3Global, i64 0, i32 22), ptr noundef nonnull align 8 dereferenceable(32) %3)
          to label %17 unwind label %27

17:                                               ; preds = %_ZNSt7__cxx1112basic_stringIcSt11char_traitsIcESaIcEEC2IS3_EEPKcRKS3_.exit21
  call void @_ZNSt7__cxx1112basic_stringIcSt11char_traitsIcESaIcEED1Ev(ptr noundef nonnull align 8 dereferenceable(32) %3) #20
  call void @_ZNSaIcED1Ev(ptr noundef nonnull align 1 dereferenceable(1) %4) #20
  %18 = call i32 @llvm.umax.i32(i32 %11, i32 %16)
  %19 = load i8, ptr getelementptr inbounds (%class.V3Global, ptr @v3Global, i64 0, i32 22, i32 190), align 2
  %20 = and i8 %19, 1
  %.not = icmp eq i8 %20, 0
  br i1 %.not, label %30, label %29

21:                                               ; preds = %.noexc, %7
  %22 = landingpad { ptr, i32 }
          cleanup
  br label %.body

23:                                               ; preds = %_ZNSt7__cxx1112basic_stringIcSt11char_traitsIcESaIcEEC2IS3_EEPKcRKS3_.exit
  %24 = landingpad { ptr, i32 }
          cleanup
  call void @_ZNSt7__cxx1112basic_stringIcSt11char_traitsIcESaIcEED1Ev(ptr noundef nonnull align 8 dereferenceable(32) %1) #20
  br label %.body

25:                                               ; preds = %.noexc17, %12
  %26 = landingpad { ptr, i32 }
          cleanup
  br label %.body

27:                                               ; preds = %_ZNSt7__cxx1112basic_stringIcSt11char_traitsIcESaIcEEC2IS3_EEPKcRKS3_.exit21
  %28 = landingpad { ptr, i32 }
          cleanup
  call void @_ZNSt7__cxx1112basic_stringIcSt11char_traitsIcESaIcEED1Ev(ptr noundef nonnull align 8 dereferenceable(32) %3) #20
  br label %.body

29:                                               ; preds = %17
  store i32 %18, ptr @_ZZL13dumpTreeLevelvE5level, align 4
  br label %30

30:                                               ; preds = %0, %29, %17
  %.0 = phi i32 [ %18, %17 ], [ %18, %29 ], [ %5, %0 ]
  ret i32 %.0

.body:                                            ; preds = %27, %14, %25, %23, %9, %21
  %.sink = phi ptr [ %2, %21 ], [ %2, %9 ], [ %2, %23 ], [ %4, %25 ], [ %4, %14 ], [ %4, %27 ]
  %.pn13.pn = phi { ptr, i32 } [ %22, %21 ], [ %10, %9 ], [ %24, %23 ], [ %26, %25 ], [ %15, %14 ], [ %28, %27 ]
  call void @_ZNSaIcED1Ev(ptr noundef nonnull align 1 dereferenceable(1) %.sink) #20
  resume { ptr, i32 } %.pn13.pn
}